; Function Attrs: mustprogress nounwind uwtable
define hidden void @_ZN7Compile9AliasType4InitEiPK7TypePtr(ptr nocapture noundef nonnull writeonly align 8 dereferenceable(40) %0, i32 noundef %1, ptr noundef %2) local_unnamed_addr #0 align 2 {
  store i32 %1, ptr %0, align 8
  %4 = getelementptr inbounds i8, ptr %0, i64 8
  store ptr %2, ptr %4, align 8
  %5 = getelementptr inbounds i8, ptr %0, i64 16
  %6 = getelementptr inbounds i8, ptr %0, i64 32
  tail call void @llvm.memset.p0.i64(ptr noundef nonnull align 8 dereferenceable(16) %5, i8 0, i64 16, i1 false)
  store i8 1, ptr %6, align 8
  %.not = icmp eq ptr %2, null
  br i1 %.not, label %.thread, label %7

7:                                                ; preds = %3
  %8 = getelementptr inbounds i8, ptr %2, i64 16
  %9 = load i32, ptr %8, align 8
  %10 = add i32 %9, -20
  %or.cond.i = icmp ult i32 %10, 3
  br i1 %or.cond.i, label %11, label %.thread

11:                                               ; preds = %7
  %12 = load ptr, ptr %2, align 8
  %13 = getelementptr inbounds i8, ptr %12, i64 168
  %14 = load ptr, ptr %13, align 8
  %15 = tail call noundef zeroext i1 %14(ptr noundef nonnull align 8 dereferenceable(80) %2) #17
  br i1 %15, label %16, label %.thread

16:                                               ; preds = %11
  %17 = load ptr, ptr %2, align 8
  %18 = getelementptr inbounds i8, ptr %17, i64 288
  %19 = load ptr, ptr %18, align 8
  %20 = tail call noundef ptr %19(ptr noundef nonnull align 8 dereferenceable(80) %2, i32 noundef 0) #17
  %21 = tail call align 8 ptr @llvm.threadlocal.address.p0(ptr align 8 @_ZN6Thread12_thr_currentE)
  %22 = load ptr, ptr %21, align 8
  %23 = getelementptr inbounds i8, ptr %22, i64 1808
  %24 = load ptr, ptr %23, align 8
  %25 = getelementptr inbounds i8, ptr %24, i64 128
  %26 = load ptr, ptr %25, align 8
  %27 = tail call noundef ptr @_ZN7Compile15find_alias_typeEPK7TypePtrbP7ciField(ptr noundef nonnull align 8 dereferenceable(2316) %26, ptr noundef %20, i1 noundef zeroext false, ptr poison)
  %28 = load i32, ptr %27, align 8
  br label %.thread

.thread:                                          ; preds = %11, %7, %3, %16
  %.sink = phi i32 [ %28, %16 ], [ 0, %3 ], [ 0, %7 ], [ 0, %11 ]
  %29 = getelementptr inbounds i8, ptr %0, i64 36
  store i32 %.sink, ptr %29, align 4
  ret void
}